; Function Attrs: nofree nounwind memory(readwrite, argmem: read) uwtable
define noalias noundef ptr @Abc_CexDeriveFromCombModel(ptr noundef readonly captures(none) %0, i32 noundef %1, i32 noundef %2, i32 noundef %3) local_unnamed_addr #3 {
  %5 = add nsw i32 %2, %1
  %6 = ashr i32 %5, 5
  %7 = and i32 %5, 31
  %8 = icmp ne i32 %7, 0
  %9 = zext i1 %8 to i32
  %10 = add nsw i32 %6, %9
  %11 = sext i32 %10 to i64
  %12 = shl nsw i64 %11, 2
  %13 = add nsw i64 %12, 20
  %calloc.i = tail call ptr @calloc(i64 1, i64 %13)
  %14 = getelementptr inbounds nuw i8, ptr %calloc.i, i64 8
  store i32 %2, ptr %14, align 4, !tbaa !3
  %15 = getelementptr inbounds nuw i8, ptr %calloc.i, i64 12
  store i32 %1, ptr %15, align 4, !tbaa !8
  %16 = getelementptr inbounds nuw i8, ptr %calloc.i, i64 16
  store i32 %5, ptr %16, align 4, !tbaa !9
  store i32 %3, ptr %calloc.i, align 4, !tbaa !10
  %17 = icmp sgt i32 %1, 0
  br i1 %17, label %.lr.ph, label %._crit_edge

.lr.ph:                                           ; preds = %4
  %18 = getelementptr inbounds nuw i8, ptr %calloc.i, i64 20
  %wide.trip.count = zext nneg i32 %1 to i64
  br label %19

19:                                               ; preds = %.lr.ph, %31
  %indvars.iv = phi i64 [ 0, %.lr.ph ], [ %indvars.iv.next, %31 ]
  %20 = getelementptr inbounds nuw i32, ptr %0, i64 %indvars.iv
  %21 = load i32, ptr %20, align 4, !tbaa !12
  %.not = icmp eq i32 %21, 0
  br i1 %.not, label %31, label %22

22:                                               ; preds = %19
  %23 = trunc nuw nsw i64 %indvars.iv to i32
  %24 = and i32 %23, 31
  %25 = shl nuw i32 1, %24
  %26 = lshr i64 %indvars.iv, 5
  %27 = and i64 %26, 134217727
  %28 = getelementptr inbounds nuw [0 x i32], ptr %18, i64 0, i64 %27
  %29 = load i32, ptr %28, align 4, !tbaa !12
  %30 = or i32 %29, %25
  store i32 %30, ptr %28, align 4, !tbaa !12
  br label %31

31:                                               ; preds = %19, %22
  %indvars.iv.next = add nuw nsw i64 %indvars.iv, 1
  %exitcond.not = icmp eq i64 %indvars.iv.next, %wide.trip.count
  br i1 %exitcond.not, label %._crit_edge, label %19, !llvm.loop !17

._crit_edge:                                      ; preds = %31, %4
  ret ptr %calloc.i
}